target datalayout = "e-m:e-p270:32:32-p271:32:32-p272:64:64-i64:64-i128:128-f80:128-n8:16:32:64-S128"
target triple = "x86_64-pc-linux-gnu"

%"struct.std::_Rb_tree_header" = type { %"struct.std::_Rb_tree_node_base", i64 }
%"struct.std::_Rb_tree_node_base" = type { i32, ptr, ptr, ptr }
%"class.std::__cxx11::basic_string" = type { %"struct.std::__cxx11::basic_string<char>::_Alloc_hider", i64, %union.anon }
%"struct.std::__cxx11::basic_string<char>::_Alloc_hider" = type { ptr }
%union.anon = type { i64, [8 x i8] }
%"struct.Yosys::AST::AstNode" = type <{ i32, i32, %"class.std::vector", %"class.std::map", %"class.std::__cxx11::basic_string", %"class.std::vector.6", i8, i8, i8, i8, i8, i8, i8, i8, i8, i8, i8, i8, i8, [3 x i8], i32, i32, i32, i32, double, i8, [7 x i8], %"class.std::vector.11", i32, [4 x i8], ptr, i8, i8, [6 x i8], %"class.std::__cxx11::basic_string", %"struct.Yosys::AST::AstSrcLocType", i8, i8, i8, i8, [4 x i8] }>
%"class.std::vector" = type { %"struct.std::_Vector_base" }
%"struct.std::_Vector_base" = type { %"struct.std::_Vector_base<Yosys::AST::AstNode *, std::allocator<Yosys::AST::AstNode *>>::_Vector_impl" }
%"struct.std::_Vector_base<Yosys::AST::AstNode *, std::allocator<Yosys::AST::AstNode *>>::_Vector_impl" = type { %"struct.std::_Vector_base<Yosys::AST::AstNode *, std::allocator<Yosys::AST::AstNode *>>::_Vector_impl_data" }
%"struct.std::_Vector_base<Yosys::AST::AstNode *, std::allocator<Yosys::AST::AstNode *>>::_Vector_impl_data" = type { ptr, ptr, ptr }
%"class.std::map" = type { %"class.std::_Rb_tree" }
%"class.std::_Rb_tree" = type { %"struct.std::_Rb_tree<Yosys::RTLIL::IdString, std::pair<const Yosys::RTLIL::IdString, Yosys::AST::AstNode *>, std::_Select1st<std::pair<const Yosys::RTLIL::IdString, Yosys::AST::AstNode *>>, std::less<Yosys::RTLIL::IdString>>::_Rb_tree_impl" }
%"struct.std::_Rb_tree<Yosys::RTLIL::IdString, std::pair<const Yosys::RTLIL::IdString, Yosys::AST::AstNode *>, std::_Select1st<std::pair<const Yosys::RTLIL::IdString, Yosys::AST::AstNode *>>, std::less<Yosys::RTLIL::IdString>>::_Rb_tree_impl" = type { [8 x i8], %"struct.std::_Rb_tree_header" }
%"class.std::vector.6" = type { %"struct.std::_Vector_base.7" }
%"struct.std::_Vector_base.7" = type { %"struct.std::_Vector_base<Yosys::RTLIL::State, std::allocator<Yosys::RTLIL::State>>::_Vector_impl" }
%"struct.std::_Vector_base<Yosys::RTLIL::State, std::allocator<Yosys::RTLIL::State>>::_Vector_impl" = type { %"struct.std::_Vector_base<Yosys::RTLIL::State, std::allocator<Yosys::RTLIL::State>>::_Vector_impl_data" }
%"struct.std::_Vector_base<Yosys::RTLIL::State, std::allocator<Yosys::RTLIL::State>>::_Vector_impl_data" = type { ptr, ptr, ptr }
%"class.std::vector.11" = type { %"struct.std::_Vector_base.12" }
%"struct.std::_Vector_base.12" = type { %"struct.std::_Vector_base<Yosys::AST::AstNode::dimension_t, std::allocator<Yosys::AST::AstNode::dimension_t>>::_Vector_impl" }
%"struct.std::_Vector_base<Yosys::AST::AstNode::dimension_t, std::allocator<Yosys::AST::AstNode::dimension_t>>::_Vector_impl" = type { %"struct.std::_Vector_base<Yosys::AST::AstNode::dimension_t, std::allocator<Yosys::AST::AstNode::dimension_t>>::_Vector_impl_data" }
%"struct.std::_Vector_base<Yosys::AST::AstNode::dimension_t, std::allocator<Yosys::AST::AstNode::dimension_t>>::_Vector_impl_data" = type { ptr, ptr, ptr }
%"struct.Yosys::AST::AstSrcLocType" = type { i32, i32, i32, i32 }
%"struct.Yosys::AST::AstNode::dimension_t" = type { i32, i32, i8 }

; Function Attrs: mustprogress uwtable
define internal noundef ptr @_ZN5YosysL8node_intEi(i32 noundef %0) #4 {
  %2 = alloca i32, align 4
  store i32 %0, ptr %2, align 4, !tbaa !74
  %3 = load i32, ptr %2, align 4, !tbaa !74
  %4 = call noundef ptr @_ZN5Yosys3AST7AstNode11mkconst_intEjbi(i32 noundef %3, i1 noundef zeroext true, i32 noundef 32)
  ret ptr %4
}

; Function Attrs: mustprogress nounwind uwtable
define linkonce_odr noundef nonnull align 4 dereferenceable(12) ptr @_ZNSt6vectorIN5Yosys3AST7AstNode11dimension_tESaIS3_EEixEm(ptr noundef nonnull align 8 dereferenceable(24) %0, i64 noundef %1) #6 comdat align 2 {
  %3 = alloca ptr, align 8
  %4 = alloca i64, align 8
  store ptr %0, ptr %3, align 8, !tbaa !324
  store i64 %1, ptr %4, align 8, !tbaa !67
  %5 = load ptr, ptr %3, align 8
  %6 = getelementptr inbounds nuw %"struct.std::_Vector_base.12", ptr %5, i32 0, i32 0
  %7 = getelementptr inbounds nuw %"struct.std::_Vector_base<Yosys::AST::AstNode::dimension_t, std::allocator<Yosys::AST::AstNode::dimension_t>>::_Vector_impl_data", ptr %6, i32 0, i32 0
  %8 = load ptr, ptr %7, align 8, !tbaa !326
  %9 = load i64, ptr %4, align 8, !tbaa !67
  %10 = getelementptr inbounds nuw %"struct.Yosys::AST::AstNode::dimension_t", ptr %8, i64 %9
  ret ptr %10
}

; Function Attrs: mustprogress uwtable
define internal noundef ptr @_ZN5YosysL15normalize_indexEPNS_3AST7AstNodeES2_i(ptr noundef %0, ptr noundef %1, i32 noundef %2) #4 personality ptr @__gxx_personality_v0 {
  %4 = alloca ptr, align 8
  %5 = alloca ptr, align 8
  %6 = alloca i32, align 4
  %7 = alloca i32, align 4
  %8 = alloca ptr, align 8
  %9 = alloca i32, align 4
  %10 = alloca i32, align 4
  store ptr %0, ptr %4, align 8, !tbaa !6
  store ptr %1, ptr %5, align 8, !tbaa !6
  store i32 %2, ptr %6, align 4, !tbaa !74
  %11 = load ptr, ptr %4, align 8, !tbaa !6
  %12 = call noundef ptr @_ZNK5Yosys3AST7AstNode5cloneEv(ptr noundef nonnull align 8 dereferenceable(284) %11)
  store ptr %12, ptr %4, align 8, !tbaa !6
  call void @llvm.lifetime.start.p0(i64 4, ptr %7) #3
  %13 = load ptr, ptr %5, align 8, !tbaa !6
  %14 = getelementptr inbounds nuw %"struct.Yosys::AST::AstNode", ptr %13, i32 0, i32 27
  %15 = load i32, ptr %6, align 4, !tbaa !74
  %16 = sext i32 %15 to i64
  %17 = call noundef nonnull align 4 dereferenceable(12) ptr @_ZNSt6vectorIN5Yosys3AST7AstNode11dimension_tESaIS3_EEixEm(ptr noundef nonnull align 8 dereferenceable(24) %14, i64 noundef %16) #3
  %18 = getelementptr inbounds nuw %"struct.Yosys::AST::AstNode::dimension_t", ptr %17, i32 0, i32 0
  %19 = load i32, ptr %18, align 4, !tbaa !212
  store i32 %19, ptr %7, align 4, !tbaa !74
  %20 = load i32, ptr %7, align 4, !tbaa !74
  %21 = icmp ne i32 %20, 0
  br i1 %21, label %22, label %33

22:                                               ; preds = %3
  %23 = call noalias noundef nonnull ptr @_Znwm(i64 noundef 288) #24
  %24 = load ptr, ptr %4, align 8, !tbaa !6
  %25 = load i32, ptr %7, align 4, !tbaa !74
  %26 = invoke noundef ptr @_ZN5YosysL8node_intEi(i32 noundef %25)
          to label %27 unwind label %29

27:                                               ; preds = %22
  invoke void @_ZN5Yosys3AST7AstNodeC1ENS0_11AstNodeTypeEPS1_S3_S3_S3_(ptr noundef nonnull align 8 dereferenceable(284) %23, i32 noundef 61, ptr noundef %24, ptr noundef %26, ptr noundef null, ptr noundef null)
          to label %28 unwind label %29

28:                                               ; preds = %27
  store ptr %23, ptr %4, align 8, !tbaa !6
  br label %33

29:                                               ; preds = %27, %22
  %30 = landingpad { ptr, i32 }
          cleanup
  %31 = extractvalue { ptr, i32 } %30, 0
  store ptr %31, ptr %8, align 8
  %32 = extractvalue { ptr, i32 } %30, 1
  store i32 %32, ptr %9, align 4
  call void @_ZdlPvm(ptr noundef %23, i64 noundef 288) #25
  br label %72

33:                                               ; preds = %28, %3
  %34 = load i32, ptr %6, align 4, !tbaa !74
  %35 = load ptr, ptr %5, align 8, !tbaa !6
  %36 = getelementptr inbounds nuw %"struct.Yosys::AST::AstNode", ptr %35, i32 0, i32 28
  %37 = load i32, ptr %36, align 8, !tbaa !206
  %38 = icmp slt i32 %34, %37
  %39 = zext i1 %38 to i32
  %40 = load ptr, ptr %5, align 8, !tbaa !6
  %41 = getelementptr inbounds nuw %"struct.Yosys::AST::AstNode", ptr %40, i32 0, i32 27
  %42 = load i32, ptr %6, align 4, !tbaa !74
  %43 = sext i32 %42 to i64
  %44 = call noundef nonnull align 4 dereferenceable(12) ptr @_ZNSt6vectorIN5Yosys3AST7AstNode11dimension_tESaIS3_EEixEm(ptr noundef nonnull align 8 dereferenceable(24) %41, i64 noundef %43) #3
  %45 = getelementptr inbounds nuw %"struct.Yosys::AST::AstNode::dimension_t", ptr %44, i32 0, i32 2
  %46 = load i8, ptr %45, align 4, !tbaa !215, !range !13, !noundef !14
  %47 = trunc i8 %46 to i1
  %48 = zext i1 %47 to i32
  %49 = xor i32 %39, %48
  %50 = icmp ne i32 %49, 0
  br i1 %50, label %51, label %70

51:                                               ; preds = %33
  call void @llvm.lifetime.start.p0(i64 4, ptr %10) #3
  %52 = load ptr, ptr %5, align 8, !tbaa !6
  %53 = getelementptr inbounds nuw %"struct.Yosys::AST::AstNode", ptr %52, i32 0, i32 27
  %54 = load i32, ptr %6, align 4, !tbaa !74
  %55 = sext i32 %54 to i64
  %56 = call noundef nonnull align 4 dereferenceable(12) ptr @_ZNSt6vectorIN5Yosys3AST7AstNode11dimension_tESaIS3_EEixEm(ptr noundef nonnull align 8 dereferenceable(24) %53, i64 noundef %55) #3
  %57 = getelementptr inbounds nuw %"struct.Yosys::AST::AstNode::dimension_t", ptr %56, i32 0, i32 1
  %58 = load i32, ptr %57, align 4, !tbaa !214
  %59 = sub nsw i32 %58, 1
  store i32 %59, ptr %10, align 4, !tbaa !74
  %60 = call noalias noundef nonnull ptr @_Znwm(i64 noundef 288) #24
  %61 = load i32, ptr %10, align 4, !tbaa !74
  %62 = invoke noundef ptr @_ZN5YosysL8node_intEi(i32 noundef %61)
          to label %63 unwind label %66

63:                                               ; preds = %51
  %64 = load ptr, ptr %4, align 8, !tbaa !6
  invoke void @_ZN5Yosys3AST7AstNodeC1ENS0_11AstNodeTypeEPS1_S3_S3_S3_(ptr noundef nonnull align 8 dereferenceable(284) %60, i32 noundef 61, ptr noundef %62, ptr noundef %64, ptr noundef null, ptr noundef null)
          to label %65 unwind label %66

65:                                               ; preds = %63
  store ptr %60, ptr %4, align 8, !tbaa !6
  call void @llvm.lifetime.end.p0(i64 4, ptr %10) #3
  br label %70

66:                                               ; preds = %63, %51
  %67 = landingpad { ptr, i32 }
          cleanup
  %68 = extractvalue { ptr, i32 } %67, 0
  store ptr %68, ptr %8, align 8
  %69 = extractvalue { ptr, i32 } %67, 1
  store i32 %69, ptr %9, align 4
  call void @_ZdlPvm(ptr noundef %60, i64 noundef 288) #25
  call void @llvm.lifetime.end.p0(i64 4, ptr %10) #3
  br label %72

70:                                               ; preds = %65, %33
  %71 = load ptr, ptr %4, align 8, !tbaa !6
  call void @llvm.lifetime.end.p0(i64 4, ptr %7) #3
  ret ptr %71

72:                                               ; preds = %66, %29
  call void @llvm.lifetime.end.p0(i64 4, ptr %7) #3
  br label %73

73:                                               ; preds = %72
  %74 = load ptr, ptr %8, align 8
  %75 = load i32, ptr %9, align 4
  %76 = insertvalue { ptr, i32 } poison, ptr %74, 0
  %77 = insertvalue { ptr, i32 } %76, i32 %75, 1
  resume { ptr, i32 } %77
}