; Function Attrs: mustprogress uwtable
define internal fastcc noundef ptr @_ZN5YosysL15normalize_indexEPNS_3AST7AstNodeES2_i(ptr noundef nonnull %0, ptr noundef readonly captures(none) %1, i32 noundef %2) unnamed_addr #3 personality ptr @__gxx_personality_v0 {
  %4 = tail call noundef ptr @_ZNK5Yosys3AST7AstNode5cloneEv(ptr noundef nonnull align 8 dereferenceable(284) %0)
  %5 = getelementptr inbounds nuw i8, ptr %1, i64 184
  %6 = sext i32 %2 to i64
  %7 = load ptr, ptr %5, align 8, !tbaa !300
  %8 = getelementptr inbounds nuw %"struct.Yosys::AST::AstNode::dimension_t", ptr %7, i64 %6
  %9 = load i32, ptr %8, align 4, !tbaa !307
  %.not = icmp eq i32 %9, 0
  br i1 %.not, label %15, label %10

10:                                               ; preds = %3
  %11 = tail call noalias noundef nonnull dereferenceable(288) ptr @_Znwm(i64 noundef 288) #40
  %12 = invoke noundef ptr @_ZN5Yosys3AST7AstNode11mkconst_intEjbi(i32 noundef %9, i1 noundef zeroext true, i32 noundef 32)
          to label %_ZN5YosysL8node_intEi.exit unwind label %13

_ZN5YosysL8node_intEi.exit:                       ; preds = %10
  invoke void @_ZN5Yosys3AST7AstNodeC1ENS0_11AstNodeTypeEPS1_S3_S3_S3_(ptr noundef nonnull align 8 dereferenceable(284) %11, i32 noundef 61, ptr noundef %4, ptr noundef %12, ptr noundef null, ptr noundef null)
          to label %_ZN5YosysL8node_intEi.exit._crit_edge unwind label %13

_ZN5YosysL8node_intEi.exit._crit_edge:            ; preds = %_ZN5YosysL8node_intEi.exit
  %.pre = load ptr, ptr %5, align 8, !tbaa !300
  br label %15

13:                                               ; preds = %10, %_ZN5YosysL8node_intEi.exit
  %14 = landingpad { ptr, i32 }
          cleanup
  br label %33

15:                                               ; preds = %_ZN5YosysL8node_intEi.exit._crit_edge, %3
  %16 = phi ptr [ %7, %3 ], [ %.pre, %_ZN5YosysL8node_intEi.exit._crit_edge ]
  %.0 = phi ptr [ %4, %3 ], [ %11, %_ZN5YosysL8node_intEi.exit._crit_edge ]
  %17 = getelementptr inbounds nuw i8, ptr %1, i64 208
  %18 = load i32, ptr %17, align 8, !tbaa !302
  %19 = icmp slt i32 %2, %18
  %20 = getelementptr inbounds nuw %"struct.Yosys::AST::AstNode::dimension_t", ptr %16, i64 %6
  %21 = getelementptr inbounds nuw i8, ptr %20, i64 8
  %22 = load i8, ptr %21, align 4, !tbaa !310, !range !45, !noundef !46
  %23 = zext i1 %19 to i8
  %.not19 = icmp eq i8 %22, %23
  br i1 %.not19, label %32, label %24

24:                                               ; preds = %15
  %25 = getelementptr inbounds nuw i8, ptr %20, i64 4
  %26 = load i32, ptr %25, align 4, !tbaa !309
  %27 = add nsw i32 %26, -1
  %28 = tail call noalias noundef nonnull dereferenceable(288) ptr @_Znwm(i64 noundef 288) #40
  %29 = invoke noundef ptr @_ZN5Yosys3AST7AstNode11mkconst_intEjbi(i32 noundef %27, i1 noundef zeroext true, i32 noundef 32)
          to label %_ZN5YosysL8node_intEi.exit21 unwind label %30

_ZN5YosysL8node_intEi.exit21:                     ; preds = %24
  invoke void @_ZN5Yosys3AST7AstNodeC1ENS0_11AstNodeTypeEPS1_S3_S3_S3_(ptr noundef nonnull align 8 dereferenceable(284) %28, i32 noundef 61, ptr noundef %29, ptr noundef %.0, ptr noundef null, ptr noundef null)
          to label %32 unwind label %30

30:                                               ; preds = %24, %_ZN5YosysL8node_intEi.exit21
  %31 = landingpad { ptr, i32 }
          cleanup
  br label %33

32:                                               ; preds = %_ZN5YosysL8node_intEi.exit21, %15
  %.1 = phi ptr [ %.0, %15 ], [ %28, %_ZN5YosysL8node_intEi.exit21 ]
  ret ptr %.1

33:                                               ; preds = %30, %13
  %.sink = phi ptr [ %28, %30 ], [ %11, %13 ]
  %.pn = phi { ptr, i32 } [ %31, %30 ], [ %14, %13 ]
  tail call void @_ZdlPvm(ptr noundef nonnull %.sink, i64 noundef 288) #38
  resume { ptr, i32 } %.pn
}